target datalayout = "e-m:e-p270:32:32-p271:32:32-p272:64:64-i64:64-i128:128-f80:128-n8:16:32:64-S128"
target triple = "x86_64-pc-linux-gnu"

%"class.VrmlTranslator::Scanner" = type { ptr, ptr, ptr, ptr, i8, i32, i32, i32, i32, %"class.VrmlTranslator::StartStates", %"class.VrmlTranslator::KeywordMap", ptr, ptr, i32, i32, ptr, ptr, i32, i32, i32, i32, i32, ptr }
%"class.VrmlTranslator::StartStates" = type { ptr, ptr }
%"class.VrmlTranslator::KeywordMap" = type { ptr, ptr }

@_ZTIPc = external constant ptr
@_ZTVN14VrmlTranslator11StartStatesE = linkonce_odr unnamed_addr constant { [4 x ptr] } { [4 x ptr] [ptr null, ptr @_ZTIN14VrmlTranslator11StartStatesE, ptr @_ZN14VrmlTranslator11StartStatesD2Ev, ptr @_ZN14VrmlTranslator11StartStatesD0Ev] }, comdat, align 8
@_ZTVN14VrmlTranslator10KeywordMapE = linkonce_odr unnamed_addr constant { [4 x ptr] } { [4 x ptr] [ptr null, ptr @_ZTIN14VrmlTranslator10KeywordMapE, ptr @_ZN14VrmlTranslator10KeywordMapD2Ev, ptr @_ZN14VrmlTranslator10KeywordMapD0Ev] }, comdat, align 8
@.str.1 = private unnamed_addr constant [3 x i8] c"rb\00", align 1
@.str.2 = private unnamed_addr constant [22 x i8] c"Can not open file: %s\00", align 1
@_ZN14VrmlTranslator6BufferC1EP8_IO_FILEb = unnamed_addr alias void (ptr, ptr, i1), ptr @_ZN14VrmlTranslator6BufferC2EP8_IO_FILEb

; Function Attrs: mustprogress nounwind uwtable
define noundef i32 @_Z18coco_string_lengthPKw(ptr noundef %0) #0 {
  %2 = alloca i32, align 4
  %3 = alloca ptr, align 8
  store ptr %0, ptr %3, align 8
  %4 = load ptr, ptr %3, align 8
  %5 = icmp ne ptr %4, null
  br i1 %5, label %6, label %10

6:                                                ; preds = %1
  %7 = load ptr, ptr %3, align 8
  %8 = call i64 @wcslen(ptr noundef %7) #16
  %9 = trunc i64 %8 to i32
  store i32 %9, ptr %2, align 4
  br label %11

10:                                               ; preds = %1
  store i32 0, ptr %2, align 4
  br label %11

11:                                               ; preds = %10, %6
  %12 = load i32, ptr %2, align 4
  ret i32 %12
}

; Function Attrs: mustprogress nounwind uwtable
define void @_Z18coco_string_deleteRPc(ptr noundef nonnull align 8 dereferenceable(8) %0) #0 {
  %2 = alloca ptr, align 8
  store ptr %0, ptr %2, align 8
  %3 = load ptr, ptr %2, align 8
  %4 = load ptr, ptr %3, align 8
  %5 = icmp eq ptr %4, null
  br i1 %5, label %7, label %6

6:                                                ; preds = %1
  call void @_ZdaPv(ptr noundef %4) #13
  br label %7

7:                                                ; preds = %6, %1
  %8 = load ptr, ptr %2, align 8
  store ptr null, ptr %8, align 8
  ret void
}

; Function Attrs: mustprogress uwtable
define noundef ptr @_Z23coco_string_create_charPKw(ptr noundef %0) #1 {
  %2 = alloca ptr, align 8
  %3 = alloca i32, align 4
  %4 = alloca ptr, align 8
  %5 = alloca i32, align 4
  store ptr %0, ptr %2, align 8
  %6 = load ptr, ptr %2, align 8
  %7 = call noundef i32 @_Z18coco_string_lengthPKw(ptr noundef %6)
  store i32 %7, ptr %3, align 4
  %8 = load i32, ptr %3, align 4
  %9 = add nsw i32 %8, 1
  %10 = sext i32 %9 to i64
  %11 = call noalias noundef nonnull ptr @_Znam(i64 noundef %10) #14
  store ptr %11, ptr %4, align 8
  store i32 0, ptr %5, align 4
  br label %12

12:                                               ; preds = %27, %1
  %13 = load i32, ptr %5, align 4
  %14 = load i32, ptr %3, align 4
  %15 = icmp slt i32 %13, %14
  br i1 %15, label %16, label %30

16:                                               ; preds = %12
  %17 = load ptr, ptr %2, align 8
  %18 = load i32, ptr %5, align 4
  %19 = sext i32 %18 to i64
  %20 = getelementptr inbounds i32, ptr %17, i64 %19
  %21 = load i32, ptr %20, align 4
  %22 = trunc i32 %21 to i8
  %23 = load ptr, ptr %4, align 8
  %24 = load i32, ptr %5, align 4
  %25 = sext i32 %24 to i64
  %26 = getelementptr inbounds i8, ptr %23, i64 %25
  store i8 %22, ptr %26, align 1
  br label %27

27:                                               ; preds = %16
  %28 = load i32, ptr %5, align 4
  %29 = add nsw i32 %28, 1
  store i32 %29, ptr %5, align 4
  br label %12, !llvm.loop !13

30:                                               ; preds = %12
  %31 = load ptr, ptr %4, align 8
  %32 = load i32, ptr %3, align 4
  %33 = sext i32 %32 to i64
  %34 = getelementptr inbounds i8, ptr %31, i64 %33
  store i8 0, ptr %34, align 1
  %35 = load ptr, ptr %4, align 8
  ret ptr %35
}

; Function Attrs: mustprogress uwtable
define linkonce_odr void @_ZN14VrmlTranslator10KeywordMapC2Ev(ptr noundef nonnull align 8 dereferenceable(16) %0) unnamed_addr #1 comdat align 2 {
  %2 = alloca ptr, align 8
  store ptr %0, ptr %2, align 8
  %3 = load ptr, ptr %2, align 8
  store ptr getelementptr inbounds ({ [4 x ptr] }, ptr @_ZTVN14VrmlTranslator10KeywordMapE, i32 0, i32 0, i32 2), ptr %3, align 8
  %4 = call noalias noundef nonnull ptr @_Znam(i64 noundef 1024) #14
  %5 = getelementptr inbounds %"class.VrmlTranslator::KeywordMap", ptr %3, i32 0, i32 1
  store ptr %4, ptr %5, align 8
  %6 = getelementptr inbounds %"class.VrmlTranslator::KeywordMap", ptr %3, i32 0, i32 1
  %7 = load ptr, ptr %6, align 8
  call void @llvm.memset.p0.i64(ptr align 8 %7, i8 0, i64 1024, i1 false)
  ret void
}

; Function Attrs: mustprogress uwtable
define linkonce_odr void @_ZN14VrmlTranslator11StartStatesC2Ev(ptr noundef nonnull align 8 dereferenceable(16) %0) unnamed_addr #1 comdat align 2 {
  %2 = alloca ptr, align 8
  store ptr %0, ptr %2, align 8
  %3 = load ptr, ptr %2, align 8
  store ptr getelementptr inbounds ({ [4 x ptr] }, ptr @_ZTVN14VrmlTranslator11StartStatesE, i32 0, i32 0, i32 2), ptr %3, align 8
  %4 = call noalias noundef nonnull ptr @_Znam(i64 noundef 1024) #14
  %5 = getelementptr inbounds %"class.VrmlTranslator::StartStates", ptr %3, i32 0, i32 1
  store ptr %4, ptr %5, align 8
  %6 = getelementptr inbounds %"class.VrmlTranslator::StartStates", ptr %3, i32 0, i32 1
  %7 = load ptr, ptr %6, align 8
  call void @llvm.memset.p0.i64(ptr align 8 %7, i8 0, i64 1024, i1 false)
  ret void
}

; Function Attrs: mustprogress uwtable
define void @_ZN14VrmlTranslator7ScannerC2EPKw(ptr noundef nonnull align 8 dereferenceable(160) %0, ptr noundef %1) unnamed_addr #1 align 2 personality ptr @__gxx_personality_v0 {
  %3 = alloca ptr, align 8
  %4 = alloca ptr, align 8
  %5 = alloca ptr, align 8
  %6 = alloca i32, align 4
  %7 = alloca ptr, align 8
  %8 = alloca ptr, align 8
  %9 = alloca [50 x i8], align 16
  store ptr %0, ptr %3, align 8
  store ptr %1, ptr %4, align 8
  %10 = load ptr, ptr %3, align 8
  %11 = getelementptr inbounds %"class.VrmlTranslator::Scanner", ptr %10, i32 0, i32 9
  call void @_ZN14VrmlTranslator11StartStatesC2Ev(ptr noundef nonnull align 8 dereferenceable(16) %11)
  %12 = getelementptr inbounds %"class.VrmlTranslator::Scanner", ptr %10, i32 0, i32 10
  invoke void @_ZN14VrmlTranslator10KeywordMapC2Ev(ptr noundef nonnull align 8 dereferenceable(16) %12)
          to label %13 unwind label %27

13:                                               ; preds = %2
  %14 = load ptr, ptr %4, align 8
  %15 = invoke noundef ptr @_Z23coco_string_create_charPKw(ptr noundef %14)
          to label %16 unwind label %31

16:                                               ; preds = %13
  store ptr %15, ptr %8, align 8
  %17 = load ptr, ptr %8, align 8
  %18 = invoke noalias ptr @fopen(ptr noundef %17, ptr noundef @.str.1)
          to label %19 unwind label %31

19:                                               ; preds = %16
  store ptr %18, ptr %7, align 8
  %20 = icmp eq ptr %18, null
  br i1 %20, label %21, label %35

21:                                               ; preds = %19
  %22 = getelementptr inbounds [50 x i8], ptr %9, i64 0, i64 0
  %23 = load ptr, ptr %8, align 8
  %24 = call i32 (ptr, ptr, ...) @sprintf(ptr noundef %22, ptr noundef @.str.2, ptr noundef %23) #12
  call void @_Z18coco_string_deleteRPc(ptr noundef nonnull align 8 dereferenceable(8) %8)
  %25 = call ptr @__cxa_allocate_exception(i64 8) #12
  %26 = getelementptr inbounds [50 x i8], ptr %9, i64 0, i64 0
  store ptr %26, ptr %25, align 16
  invoke void @__cxa_throw(ptr %25, ptr @_ZTIPc, ptr null) #15
          to label %53 unwind label %31

27:                                               ; preds = %2
  %28 = landingpad { ptr, i32 }
          cleanup
  %29 = extractvalue { ptr, i32 } %28, 0
  store ptr %29, ptr %5, align 8
  %30 = extractvalue { ptr, i32 } %28, 1
  store i32 %30, ptr %6, align 4
  br label %47

31:                                               ; preds = %39, %35, %21, %16, %13
  %32 = landingpad { ptr, i32 }
          cleanup
  %33 = extractvalue { ptr, i32 } %32, 0
  store ptr %33, ptr %5, align 8
  %34 = extractvalue { ptr, i32 } %32, 1
  store i32 %34, ptr %6, align 4
  br label %46

35:                                               ; preds = %19
  call void @_Z18coco_string_deleteRPc(ptr noundef nonnull align 8 dereferenceable(8) %8)
  %36 = invoke noalias noundef nonnull ptr @_Znwm(i64 noundef 56) #14
          to label %37 unwind label %31

37:                                               ; preds = %35
  %38 = load ptr, ptr %7, align 8
  invoke void @_ZN14VrmlTranslator6BufferC1EP8_IO_FILEb(ptr noundef nonnull align 8 dereferenceable(49) %36, ptr noundef %38, i1 noundef zeroext false)
          to label %39 unwind label %42

39:                                               ; preds = %37
  %40 = getelementptr inbounds %"class.VrmlTranslator::Scanner", ptr %10, i32 0, i32 22
  store ptr %36, ptr %40, align 8
  invoke void @_ZN14VrmlTranslator7Scanner4InitEv(ptr noundef nonnull align 8 dereferenceable(160) %10)
          to label %41 unwind label %31

41:                                               ; preds = %39
  ret void

42:                                               ; preds = %37
  %43 = landingpad { ptr, i32 }
          cleanup
  %44 = extractvalue { ptr, i32 } %43, 0
  store ptr %44, ptr %5, align 8
  %45 = extractvalue { ptr, i32 } %43, 1
  store i32 %45, ptr %6, align 4
  call void @_ZdlPv(ptr noundef %36) #13
  br label %46

46:                                               ; preds = %42, %31
  call void @_ZN14VrmlTranslator10KeywordMapD2Ev(ptr noundef nonnull align 8 dereferenceable(16) %12) #12
  br label %47

47:                                               ; preds = %46, %27
  call void @_ZN14VrmlTranslator11StartStatesD2Ev(ptr noundef nonnull align 8 dereferenceable(16) %11) #12
  br label %48

48:                                               ; preds = %47
  %49 = load ptr, ptr %5, align 8
  %50 = load i32, ptr %6, align 4
  %51 = insertvalue { ptr, i32 } poison, ptr %49, 0
  %52 = insertvalue { ptr, i32 } %51, i32 %50, 1
  resume { ptr, i32 } %52

53:                                               ; preds = %21
  unreachable
}