; Function Attrs: mustprogress uwtable
define void @_ZN14VrmlTranslator7ScannerC2EPKw(ptr noundef nonnull align 8 dereferenceable(160) %0, ptr noundef readonly %1) unnamed_addr #2 align 2 personality ptr @__gxx_personality_v0 {
  %3 = alloca [50 x i8], align 16
  %4 = getelementptr inbounds i8, ptr %0, i64 56
  store ptr getelementptr inbounds ({ [4 x ptr] }, ptr @_ZTVN14VrmlTranslator11StartStatesE, i64 0, i32 0, i64 2), ptr %4, align 8
  %5 = tail call noalias noundef nonnull dereferenceable(1024) ptr @_Znam(i64 noundef 1024) #21
  %6 = getelementptr inbounds i8, ptr %0, i64 64
  store ptr %5, ptr %6, align 8
  tail call void @llvm.memset.p0.i64(ptr noundef nonnull align 8 dereferenceable(1024) %5, i8 0, i64 1024, i1 false)
  %7 = getelementptr inbounds i8, ptr %0, i64 72
  store ptr getelementptr inbounds ({ [4 x ptr] }, ptr @_ZTVN14VrmlTranslator10KeywordMapE, i64 0, i32 0, i64 2), ptr %7, align 8
  %8 = invoke noalias noundef nonnull dereferenceable(1024) ptr @_Znam(i64 noundef 1024) #21
          to label %9 unwind label %28

9:                                                ; preds = %2
  %10 = getelementptr inbounds i8, ptr %0, i64 80
  store ptr %8, ptr %10, align 8
  tail call void @llvm.memset.p0.i64(ptr noundef nonnull align 8 dereferenceable(1024) %8, i8 0, i64 1024, i1 false)
  %.not.i.i = icmp eq ptr %1, null
  br i1 %.not.i.i, label %_Z18coco_string_lengthPKw.exit.i, label %11

11:                                               ; preds = %9
  %12 = tail call i64 @wcslen(ptr noundef nonnull %1) #24
  %13 = trunc i64 %12 to i32
  br label %_Z18coco_string_lengthPKw.exit.i

_Z18coco_string_lengthPKw.exit.i:                 ; preds = %11, %9
  %.0.i.i = phi i32 [ %13, %11 ], [ 0, %9 ]
  %14 = add nsw i32 %.0.i.i, 1
  %15 = sext i32 %14 to i64
  %16 = invoke noalias noundef nonnull ptr @_Znam(i64 noundef %15) #21
          to label %.noexc unwind label %30

.noexc:                                           ; preds = %_Z18coco_string_lengthPKw.exit.i
  %17 = icmp sgt i32 %.0.i.i, 0
  br i1 %17, label %.lr.ph.preheader.i, label %.loopexit

.lr.ph.preheader.i:                               ; preds = %.noexc
  %wide.trip.count.i = zext nneg i32 %.0.i.i to i64
  br label %.lr.ph.i

.lr.ph.i:                                         ; preds = %.lr.ph.i, %.lr.ph.preheader.i
  %indvars.iv.i = phi i64 [ 0, %.lr.ph.preheader.i ], [ %indvars.iv.next.i, %.lr.ph.i ]
  %18 = getelementptr inbounds i32, ptr %1, i64 %indvars.iv.i
  %19 = load i32, ptr %18, align 4
  %20 = trunc i32 %19 to i8
  %21 = getelementptr inbounds i8, ptr %16, i64 %indvars.iv.i
  store i8 %20, ptr %21, align 1
  %indvars.iv.next.i = add nuw nsw i64 %indvars.iv.i, 1
  %exitcond.not.i = icmp eq i64 %indvars.iv.next.i, %wide.trip.count.i
  br i1 %exitcond.not.i, label %.loopexit, label %.lr.ph.i, !llvm.loop !13

.loopexit:                                        ; preds = %.lr.ph.i, %.noexc
  %22 = sext i32 %.0.i.i to i64
  %23 = getelementptr inbounds i8, ptr %16, i64 %22
  store i8 0, ptr %23, align 1
  %24 = tail call noalias ptr @fopen(ptr noundef nonnull %16, ptr noundef nonnull @.str.1)
  %25 = icmp eq ptr %24, null
  br i1 %25, label %_Z18coco_string_deleteRPc.exit, label %_Z18coco_string_deleteRPc.exit9

_Z18coco_string_deleteRPc.exit:                   ; preds = %.loopexit
  %26 = call i32 (ptr, ptr, ...) @sprintf(ptr noundef nonnull dereferenceable(1) %3, ptr noundef nonnull dereferenceable(1) @.str.2, ptr noundef nonnull %16) #22
  tail call void @_ZdaPv(ptr noundef nonnull %16) #20
  %27 = tail call ptr @__cxa_allocate_exception(i64 8) #22
  store ptr %3, ptr %27, align 16
  invoke void @__cxa_throw(ptr nonnull %27, ptr nonnull @_ZTIPc, ptr null) #23
          to label %41 unwind label %30

28:                                               ; preds = %2
  %29 = landingpad { ptr, i32 }
          cleanup
  br label %40

30:                                               ; preds = %_Z18coco_string_lengthPKw.exit.i, %34, %_Z18coco_string_deleteRPc.exit9, %_Z18coco_string_deleteRPc.exit
  %31 = landingpad { ptr, i32 }
          cleanup
  br label %39

_Z18coco_string_deleteRPc.exit9:                  ; preds = %.loopexit
  tail call void @_ZdaPv(ptr noundef nonnull %16) #20
  %32 = invoke noalias noundef nonnull dereferenceable(56) ptr @_Znwm(i64 noundef 56) #21
          to label %33 unwind label %30

33:                                               ; preds = %_Z18coco_string_deleteRPc.exit9
  invoke void @_ZN14VrmlTranslator6BufferC1EP8_IO_FILEb(ptr noundef nonnull align 8 dereferenceable(49) %32, ptr noundef nonnull %24, i1 noundef zeroext false)
          to label %34 unwind label %37

34:                                               ; preds = %33
  %35 = getelementptr inbounds i8, ptr %0, i64 152
  store ptr %32, ptr %35, align 8
  invoke void @_ZN14VrmlTranslator7Scanner4InitEv(ptr noundef nonnull align 8 dereferenceable(160) %0)
          to label %36 unwind label %30

36:                                               ; preds = %34
  ret void

37:                                               ; preds = %33
  %38 = landingpad { ptr, i32 }
          cleanup
  tail call void @_ZdlPv(ptr noundef nonnull %32) #20
  br label %39

39:                                               ; preds = %37, %30
  %.pn = phi { ptr, i32 } [ %31, %30 ], [ %38, %37 ]
  call void @_ZN14VrmlTranslator10KeywordMapD2Ev(ptr noundef nonnull align 8 dereferenceable(16) %7) #22
  br label %40

40:                                               ; preds = %39, %28
  %.pn.pn = phi { ptr, i32 } [ %.pn, %39 ], [ %29, %28 ]
  call void @_ZN14VrmlTranslator11StartStatesD2Ev(ptr noundef nonnull align 8 dereferenceable(16) %4) #22
  resume { ptr, i32 } %.pn.pn

41:                                               ; preds = %_Z18coco_string_deleteRPc.exit
  unreachable
}